; Function Attrs: mustprogress nounwind uwtable
define dso_local void @_ZN4Json5ValueD2Ev(ptr nocapture noundef nonnull align 8 dereferenceable(40) %0) unnamed_addr #14 align 2 personality ptr @__gxx_personality_v0 {
  %2 = getelementptr inbounds i8, ptr %0, i64 8
  %3 = load i16, ptr %2, align 8
  %trunc.i = trunc i16 %3 to i8
  switch i8 %trunc.i, label %_ZN4Json5Value14releasePayloadEv.exit [
    i8 7, label %8
    i8 6, label %8
    i8 4, label %4
  ]

4:                                                ; preds = %1
  %5 = and i16 %3, 256
  %.not = icmp eq i16 %5, 0
  br i1 %.not, label %_ZN4Json5Value14releasePayloadEv.exit, label %6

6:                                                ; preds = %4
  %7 = load ptr, ptr %0, align 8
  tail call void @free(ptr noundef %7) #35
  br label %_ZN4Json5Value14releasePayloadEv.exit

8:                                                ; preds = %1, %1
  %9 = load ptr, ptr %0, align 8
  %10 = icmp eq ptr %9, null
  br i1 %10, label %_ZN4Json5Value14releasePayloadEv.exit, label %11

11:                                               ; preds = %8
  %12 = getelementptr inbounds i8, ptr %9, i64 16
  %13 = load ptr, ptr %12, align 8
  invoke void @_ZNSt8_Rb_treeIN4Json5Value8CZStringESt4pairIKS2_S1_ESt10_Select1stIS5_ESt4lessIS2_ESaIS5_EE8_M_eraseEPSt13_Rb_tree_nodeIS5_E(ptr noundef nonnull align 8 dereferenceable(48) %9, ptr noundef %13)
          to label %_ZNSt3mapIN4Json5Value8CZStringES1_St4lessIS2_ESaISt4pairIKS2_S1_EEED2Ev.exit unwind label %14

14:                                               ; preds = %11
  %15 = landingpad { ptr, i32 }
          catch ptr null
  %16 = extractvalue { ptr, i32 } %15, 0
  tail call void @__clang_call_terminate(ptr %16) #40
  unreachable

_ZNSt3mapIN4Json5Value8CZStringES1_St4lessIS2_ESaISt4pairIKS2_S1_EEED2Ev.exit: ; preds = %11
  tail call void @_ZdlPv(ptr noundef nonnull %9) #38
  br label %_ZN4Json5Value14releasePayloadEv.exit

_ZN4Json5Value14releasePayloadEv.exit:            ; preds = %_ZNSt3mapIN4Json5Value8CZStringES1_St4lessIS2_ESaISt4pairIKS2_S1_EEED2Ev.exit, %8, %6, %4, %1
  store i64 0, ptr %0, align 8
  %17 = getelementptr inbounds i8, ptr %0, i64 16
  %18 = load ptr, ptr %17, align 8
  %.not.i.i = icmp eq ptr %18, null
  br i1 %.not.i.i, label %_ZN4Json5Value8CommentsD2Ev.exit, label %19

19:                                               ; preds = %_ZN4Json5Value14releasePayloadEv.exit
  %20 = getelementptr inbounds i8, ptr %18, i64 96
  br label %21

21:                                               ; preds = %21, %19
  %22 = phi ptr [ %20, %19 ], [ %23, %21 ]
  %23 = getelementptr inbounds i8, ptr %22, i64 -32
  tail call void @_ZNSt7__cxx1112basic_stringIcSt11char_traitsIcESaIcEED1Ev(ptr noundef nonnull align 8 dereferenceable(32) %23) #35
  %24 = icmp eq ptr %23, %18
  br i1 %24, label %_ZNKSt14default_deleteISt5arrayINSt7__cxx1112basic_stringIcSt11char_traitsIcESaIcEEELm3EEEclEPS7_.exit.i.i, label %21

_ZNKSt14default_deleteISt5arrayINSt7__cxx1112basic_stringIcSt11char_traitsIcESaIcEEELm3EEEclEPS7_.exit.i.i: ; preds = %21
  tail call void @_ZdlPv(ptr noundef %18) #38
  br label %_ZN4Json5Value8CommentsD2Ev.exit

_ZN4Json5Value8CommentsD2Ev.exit:                 ; preds = %_ZN4Json5Value14releasePayloadEv.exit, %_ZNKSt14default_deleteISt5arrayINSt7__cxx1112basic_stringIcSt11char_traitsIcESaIcEEELm3EEEclEPS7_.exit.i.i
  store ptr null, ptr %17, align 8
  ret void
}